; Function Attrs: mustprogress uwtable
define hidden noundef zeroext i1 @_ZN6google8protobuf15UnknownFieldSet20ParseFromCodedStreamEPNS0_2io16CodedInputStreamE(ptr noundef nonnull align 8 dereferenceable(24) %0, ptr noundef %1) local_unnamed_addr #3 align 2 {
  %3 = load ptr, ptr %0, align 8, !tbaa !23
  %4 = getelementptr inbounds nuw i8, ptr %0, i64 8
  %5 = load ptr, ptr %4, align 8, !tbaa !23
  %6 = icmp eq ptr %3, %5
  br i1 %6, label %_ZN6google8protobuf15UnknownFieldSet5ClearEv.exit, label %7

7:                                                ; preds = %2
  tail call void @_ZN6google8protobuf15UnknownFieldSet13ClearFallbackEv(ptr noundef nonnull align 8 dereferenceable(24) %0)
  br label %_ZN6google8protobuf15UnknownFieldSet5ClearEv.exit

_ZN6google8protobuf15UnknownFieldSet5ClearEv.exit: ; preds = %2, %7
  %8 = tail call noundef zeroext i1 @_ZN6google8protobuf15UnknownFieldSet20MergeFromCodedStreamEPNS0_2io16CodedInputStreamE(ptr noundef nonnull align 8 dereferenceable(24) %0, ptr noundef %1)
  ret i1 %8
}